; Function Attrs: mustprogress nofree norecurse nosync nounwind willreturn memory(read, inaccessiblemem: none) uwtable
define noundef zeroext i1 @_ZNK32pxrInternal_v0_24__pxrReserved__7SdfPath18IsAbsoluteRootPathEv(ptr nocapture noundef nonnull readonly align 4 dereferenceable(8) %0) local_unnamed_addr #8 align 2 personality ptr @__gxx_personality_v0 {
  %2 = getelementptr inbounds nuw i8, ptr %0, i64 4
  %3 = load i32, ptr %2, align 4
  %.not = icmp eq i32 %3, 0
  br i1 %.not, label %4, label %22

4:                                                ; preds = %1
  %5 = load i32, ptr %0, align 4
  %.not1 = icmp eq i32 %5, 0
  br i1 %.not1, label %22, label %6

6:                                                ; preds = %4
  %7 = and i32 %5, 255
  %8 = lshr i32 %5, 8
  %9 = zext nneg i32 %7 to i64
  %10 = getelementptr inbounds [257 x ptr], ptr @_ZN32pxrInternal_v0_24__pxrReserved__8Sdf_PoolINS_15Sdf_PathPrimTagELj24ELj8ELj16384EE13_regionStartsE, i64 0, i64 %9
  %11 = load ptr, ptr %10, align 8
  %12 = mul nuw nsw i32 %8, 24
  %13 = zext nneg i32 %12 to i64
  %14 = getelementptr inbounds i8, ptr %11, i64 %13
  %15 = getelementptr inbounds nuw i8, ptr %14, i64 15
  %16 = load i8, ptr %15, align 1
  %17 = and i8 %16, 1
  %18 = icmp ne i8 %17, 0
  %19 = getelementptr inbounds nuw i8, ptr %14, i64 12
  %20 = load i16, ptr %19, align 4
  %.not.i = icmp eq i16 %20, 0
  %21 = and i1 %18, %.not.i
  br label %22

22:                                               ; preds = %6, %4, %1
  %23 = phi i1 [ false, %4 ], [ false, %1 ], [ %21, %6 ]
  ret i1 %23
}